Certificate:
    Data:
        Version: 3 (0x2)
        Serial Number:
            d5:56:d2:f4:e9:04:86:5a
    Signature Algorithm: sha256WithRSAEncryption
        Issuer: CN=user1
        Validity
            Not Before: Dec 15 10:54:06 2018 GMT
            Not After : Dec 15 10:54:06 2019 GMT
        Subject: CN=user1
        Subject Public Key Info:
            Public Key Algorithm: rsaEncryption
                Public-Key: (2048 bit)
                Modulus:
                    00:e0:05:ef:12:64:90:b0:cc:a0:df:a3:f6:b1:71:
                    a1:d1:e0:a3:22:05:12:11:89:d5:34:41:fc:77:20:
                    99:37:1b:3e:13:3c:ef:95:97:7b:b2:17:68:9c:c9:
                    18:d9:20:8f:68:96:b2:a9:53:da:11:f9:77:70:27:
                    d5:10:39:3b:15:54:13:65:4a:48:b1:27:19:61:61:
                    c0:81:19:47:b9:e0:85:75:d9:36:e2:06:14:d7:9c:
                    9e:ec:97:1e:91:c4:18:3e:e0:71:57:43:41:45:96:
                    ad:26:ff:52:f1:e1:a4:a5:07:8b:49:18:a9:6c:2c:
                    31:48:dc:84:aa:14:84:66:04:1b:e4:ba:ff:3d:8a:
                    f2:a2:63:72:63:89:e6:93:a2:3d:06:7b:c0:1e:6b:
                    ff:5a:e0:f3:78:6b:34:38:01:e1:0b:25:24:db:9f:
                    e7:9f:d1:3e:13:a6:58:f2:3a:f2:2e:af:9b:6a:63:
                    e1:3c:7f:29:82:da:c6:c6:95:58:c5:fa:db:f0:36:
                    25:89:9e:f5:5a:ba:b7:b5:cd:92:66:a4:71:ca:a1:
                    ed:a5:13:6d:ff:a2:0a:70:86:84:41:0b:dd:1e:0c:
                    61:93:52:c9:bf:82:85:4a:c6:fa:e6:5c:18:1e:08:
                    6e:12:94:72:c3:86:c8:07:da:f3:71:07:61:11:6a:
                    01:c5
                Exponent: 65537 (0x10001)
        X509v3 extensions:
            X509v3 Subject Key Identifier: 
                2E:D7:34:12:16:38:39:C8:92:7E:A8:8C:F1:DF:F0:7F:DD:57:70:44
            X509v3 Authority Key Identifier: 
                keyid:2E:D7:34:12:16:38:39:C8:92:7E:A8:8C:F1:DF:F0:7F:DD:57:70:44

            X509v3 Basic Constraints: 
                CA:TRUE
    Signature Algorithm: sha256WithRSAEncryption
         a0:55:06:d2:e0:b5:fe:bb:18:2f:66:35:f5:c7:4e:e3:7f:7e:
         ae:e2:db:69:96:5c:46:f8:9d:82:aa:f1:eb:6b:3b:a9:27:c9:
         58:26:e1:20:6b:8c:21:05:62:b4:13:1c:c0:9e:05:dc:09:2a:
         cf:f7:62:13:08:49:ac:8a:12:a1:09:b1:f2:21:8a:2c:c7:0b:
         a1:8f:f3:ed:d0:8e:b8:6f:d1:f8:55:fa:f9:43:aa:59:91:7a:
         2d:af:ef:c9:86:ad:e5:8a:9b:d6:f1:9b:b2:54:49:50:3c:d5:
         04:57:eb:53:e3:b9:a5:13:85:e9:c7:26:fb:69:03:64:c3:f7:
         80:59:ce:1c:f5:e6:44:b9:be:53:7c:97:9e:21:c2:20:7e:88:
         0d:b0:60:0b:c6:a2:08:9f:c0:ec:57:92:6e:b0:8e:da:84:9f:
         0d:18:a8:0d:a2:79:32:87:23:f7:ce:65:f6:14:cb:eb:a1:ca:
         62:cf:58:51:5e:df:43:32:98:90:98:61:c8:2a:69:60:8f:4f:
         e0:b3:4c:79:7e:e9:8f:a6:89:d9:f9:15:a2:5f:56:e1:f0:91:
         8f:68:bd:ed:e7:c2:cd:c4:07:5a:98:ab:1f:95:a6:06:f7:0d:
         09:07:d7:bc:cb:8a:d9:5a:25:eb:5d:b9:46:1b:db:50:c8:25:
         aa:bc:5e:d0
-----BEGIN CERTIFICATE-----
MIIC8zCCAdugAwIBAgIJANVW0vTpBIZaMA0GCSqGSIb3DQEBCwUAMBAxDjAMBgNV
BAMMBXVzZXIxMB4XDTE4MTIxNTEwNTQwNloXDTE5MTIxNTEwNTQwNlowEDEOMAwG
A1UEAwwFdXNlcjEwggEiMA0GCSqGSIb3DQEBAQUAA4IBDwAwggEKAoIBAQDgBe8S
ZJCwzKDfo/axcaHR4KMiBRIRidU0Qfx3IJk3Gz4TPO+Vl3uyF2icyRjZII9olrKp
U9oR+XdwJ9UQOTsVVBNlSkixJxlhYcCBGUe54IV12TbiBhTXnJ7slx6RxBg+4HFX
Q0FFlq0m/1Lx4aSlB4tJGKlsLDFI3ISqFIRmBBvkuv89ivKiY3JjieaToj0Ge8Ae
a/9a4PN4azQ4AeELJSTbn+ef0T4TpljyOvIur5tqY+E8fymC2sbGlVjF+tvwNiWJ
nvVaure1zZJmpHHKoe2lE23/ogpwhoRBC90eDGGTUsm/goVKxvrmXBgeCG4SlHLD
hsgH2vNxB2ERagHFAgMBAAGjUDBOMB0GA1UdDgQWBBQu1zQSFjg5yJJ+qIzx3/B/
3VdwRDAfBgNVHSMEGDAWgBQu1zQSFjg5yJJ+qIzx3/B/3VdwRDAMBgNVHRMEBTAD
AQH/MA0GCSqGSIb3DQEBCwUAA4IBAQCgVQbS4LX+uxgvZjX1x07jf36u4ttpllxG
+J2CqvHrazupJ8lYJuEga4whBWK0ExzAngXcCSrP92ITCEmsihKhCbHyIYosxwuh
j/Pt0I64b9H4Vfr5Q6pZkXotr+/Jhq3lipvW8ZuyVElQPNUEV+tT47mlE4Xpxyb7
aQNkw/eAWc4c9eZEub5TfJeeIcIgfogNsGALxqIIn8DsV5JusI7ahJ8NGKgNonky
hyP3zmX2FMvrocpiz1hRXt9DMpiQmGHIKmlgj0/gs0x5fumPponZ+RWiX1bh8JGP
aL3t58LNxAdamKsflaYG9w0JB9e8y4rZWiXrXblGG9tQyCWqvF7Q
-----END CERTIFICATE-----
