Certificate:
    Data:
        Version: 3 (0x2)
        Serial Number: 4241 (0x1091)
    Signature Algorithm: sha256WithRSAEncryption
        Issuer: C=FR, ST=IDF, L=Paris, O=Fake NodeOPCUA Certification Authority (for testing only), CN=node-opcua.github.io
        Validity
            Not Before: Feb 14 14:28:15 2013 GMT
            Not After : Feb 24 14:28:15 2013 GMT
        Subject: O=NodeOPCUA, CN=urn:NodeOPCUA-Server
        Subject Public Key Info:
            Public Key Algorithm: rsaEncryption
                Public-Key: (2048 bit)
                Modulus:
                    00:95:5e:0e:e6:5f:c8:7c:aa:25:83:7d:98:87:e5:
                    d5:3a:af:69:ea:42:48:f7:f8:73:25:3d:75:1a:71:
                    fa:1c:5c:88:b3:73:98:ae:e9:68:e6:cb:fd:00:bc:
                    12:f6:38:d4:52:14:24:eb:46:30:12:5e:01:a6:7b:
                    96:80:56:35:d5:f6:90:f0:39:dc:89:b1:7c:94:bb:
                    19:f3:ea:17:6c:10:73:37:4b:cc:2f:93:a1:51:51:
                    7d:ce:57:e7:8d:79:a5:7d:87:9e:39:78:79:c5:ac:
                    df:23:8f:f7:d4:05:8e:2c:f8:16:82:b4:74:bf:34:
                    54:97:9d:d4:18:1d:2c:82:07:70:ae:7d:83:70:16:
                    7a:47:05:9e:6e:b1:06:f9:1d:3a:53:bb:c3:98:86:
                    8d:8c:cf:d0:5f:f1:c5:ff:ff:df:63:a2:71:09:c3:
                    0a:34:93:7b:e0:f5:9d:9b:46:67:31:06:bf:71:83:
                    e4:c0:fb:a7:c9:1c:a7:c2:39:35:12:3c:0b:e9:0b:
                    08:a2:51:30:ed:f1:b1:9d:2f:7b:d8:61:a6:c9:20:
                    f8:fa:5e:17:e0:b7:22:c7:53:03:2a:74:98:27:f7:
                    4a:92:01:72:eb:b5:ce:13:48:f8:1e:59:1a:99:93:
                    9a:aa:9e:7a:c6:44:eb:d1:99:5b:09:c2:2e:26:1b:
                    ce:af
                Exponent: 65537 (0x10001)
        X509v3 extensions:
            X509v3 Basic Constraints: 
                CA:FALSE
            X509v3 Subject Key Identifier: 
                74:38:FD:90:B1:F1:90:51:0E:9C:65:D6:AA:AC:63:9E:BC:DC:58:2F
            X509v3 Authority Key Identifier: 
                DirName:/C=FR/ST=IDF/L=Paris/O=Fake NodeOPCUA Certification Authority (for testing only)/CN=node-opcua.github.io
                serial:DE:27:FB:9D:56:8A:29:35

            X509v3 Subject Alternative Name: 
                URI:urn:NodeOPCUA-Server, DNS:localhost
            X509v3 Issuer Alternative Name: 
                <EMPTY>

    Signature Algorithm: sha256WithRSAEncryption
         88:25:4d:d7:9c:24:fd:d8:c0:46:b5:66:58:78:64:2d:2b:89:
         01:44:80:d0:88:42:34:ba:24:fe:08:3b:ed:22:4b:ff:29:ba:
         92:1c:13:6a:d3:88:c0:f4:57:30:29:6c:21:a0:8f:83:09:0b:
         e3:ca:19:1d:7c:06:fb:8b:8a:a4:77:49:6a:f2:9f:c6:23:d3:
         16:a4:be:74:93:d4:60:d0:09:3f:78:08:f0:4d:2b:83:35:10:
         75:2b:33:25:66:d9:ff:f8:3e:9f:19:96:d1:86:ea:51:39:cb:
         a5:48:9e:f8:f6:ca:27:d2:c3:f5:ac:1b:dd:24:4c:8a:37:db:
         fd:8d:07:f6:9e:fe:a3:a3:dc:32:b4:92:8c:f9:5b:25:10:c0:
         9e:07:31:a1:8b:59:fa:15:81:d7:fd:ed:e3:68:c0:10:01:d9:
         32:ab:d6:88:41:86:87:c9:54:31:38:1c:bd:f0:1e:6e:b1:97:
         25:67:ba:f2:eb:17:ff:45:bf:5b:38:e3:fc:73:ad:6d:05:0f:
         64:49:70:c6:38:16:cd:1d:6c:96:7f:e0:ea:aa:e3:2f:c0:dd:
         3e:51:df:e7:ea:18:43:7b:1c:a2:4a:1b:2d:2e:12:8a:d6:03:
         0d:a4:ee:9f:b4:c6:4e:f3:41:dd:23:fb:26:ca:76:c1:54:76:
         92:9e:e0:3d
-----BEGIN CERTIFICATE-----
MIIEVTCCAz2gAwIBAgICEJEwDQYJKoZIhvcNAQELBQAwgY4xCzAJBgNVBAYTAkZS
MQwwCgYDVQQIDANJREYxDjAMBgNVBAcMBVBhcmlzMUIwQAYDVQQKDDlGYWtlIE5v
ZGVPUENVQSBDZXJ0aWZpY2F0aW9uIEF1dGhvcml0eSAoZm9yIHRlc3Rpbmcgb25s
eSkxHTAbBgNVBAMMFG5vZGUtb3BjdWEuZ2l0aHViLmlvMB4XDTEzMDIxNDE0Mjgx
NVoXDTEzMDIyNDE0MjgxNVowMzESMBAGA1UEChMJTm9kZU9QQ1VBMR0wGwYDVQQD
ExR1cm46Tm9kZU9QQ1VBLVNlcnZlcjCCASIwDQYJKoZIhvcNAQEBBQADggEPADCC
AQoCggEBAJVeDuZfyHyqJYN9mIfl1TqvaepCSPf4cyU9dRpx+hxciLNzmK7paObL
/QC8EvY41FIUJOtGMBJeAaZ7loBWNdX2kPA53ImxfJS7GfPqF2wQczdLzC+ToVFR
fc5X5415pX2Hnjl4ecWs3yOP99QFjiz4FoK0dL80VJed1BgdLIIHcK59g3AWekcF
nm6xBvkdOlO7w5iGjYzP0F/xxf//32OicQnDCjSTe+D1nZtGZzEGv3GD5MD7p8kc
p8I5NRI8C+kLCKJRMO3xsZ0ve9hhpskg+PpeF+C3IsdTAyp0mCf3SpIBcuu1zhNI
+B5ZGpmTmqqeesZE69GZWwnCLiYbzq8CAwEAAaOCARUwggERMAkGA1UdEwQCMAAw
HQYDVR0OBBYEFHQ4/ZCx8ZBRDpxl1qqsY5683FgvMIGtBgNVHSMEgaUwgaKhgZSk
gZEwgY4xCzAJBgNVBAYTAkZSMQwwCgYDVQQIDANJREYxDjAMBgNVBAcMBVBhcmlz
MUIwQAYDVQQKDDlGYWtlIE5vZGVPUENVQSBDZXJ0aWZpY2F0aW9uIEF1dGhvcml0
eSAoZm9yIHRlc3Rpbmcgb25seSkxHTAbBgNVBAMMFG5vZGUtb3BjdWEuZ2l0aHVi
LmlvggkA3if7nVaKKTUwKgYDVR0RBCMwIYYUdXJuOk5vZGVPUENVQS1TZXJ2ZXKC
CWxvY2FsaG9zdDAJBgNVHRIEAjAAMA0GCSqGSIb3DQEBCwUAA4IBAQCIJU3XnCT9
2MBGtWZYeGQtK4kBRIDQiEI0uiT+CDvtIkv/KbqSHBNq04jA9FcwKWwhoI+DCQvj
yhkdfAb7i4qkd0lq8p/GI9MWpL50k9Rg0Ak/eAjwTSuDNRB1KzMlZtn/+D6fGZbR
hupROculSJ749son0sP1rBvdJEyKN9v9jQf2nv6jo9wytJKM+VslEMCeBzGhi1n6
FYHX/e3jaMAQAdkyq9aIQYaHyVQxOBy98B5usZclZ7ry6xf/Rb9bOOP8c61tBQ9k
SXDGOBbNHWyWf+DqquMvwN0+Ud/n6hhDexyiShstLhKK1gMNpO6ftMZO80HdI/sm
ynbBVHaSnuA9
-----END CERTIFICATE-----
