Certificate:
    Data:
        Version: 3 (0x2)
        Serial Number: 4210 (0x1072)
    Signature Algorithm: sha256WithRSAEncryption
        Issuer: C=FR, ST=IDF, L=Paris, O=Fake NodeOPCUA Certification Authority (for testing only), CN=node-opcua.github.io
        Validity
            Not Before: Feb 14 16:54:06 2015 GMT
            Not After : Feb 14 16:54:06 2016 GMT
        Subject: O=NodeOPCUA, CN=urn:NodeOPCUA-Client
        Subject Public Key Info:
            Public Key Algorithm: rsaEncryption
                Public-Key: (1024 bit)
                Modulus:
                    00:ab:57:fb:20:e2:0f:2e:32:b3:04:16:8a:5c:6a:
                    41:e3:b0:98:f3:6e:d5:3c:9d:e3:11:64:ed:f3:72:
                    ca:ac:af:ef:f4:ad:8c:3a:a4:59:5b:d5:e4:03:d0:
                    f6:5f:74:83:f2:fe:b6:d2:69:71:90:76:5c:c6:77:
                    a1:fd:a3:dc:4f:ec:7a:e1:6d:61:31:00:47:f1:c4:
                    f4:58:46:44:b4:75:2d:95:38:23:4f:08:ff:a7:a1:
                    40:db:a9:b8:02:0c:ea:95:a6:b5:a0:19:7e:0e:0c:
                    f0:7a:57:a3:68:48:a4:88:85:ef:11:14:f1:af:78:
                    e7:7b:ce:a1:bf:62:3b:c9:9f
                Exponent: 65537 (0x10001)
        X509v3 extensions:
            X509v3 Basic Constraints: 
                CA:FALSE
            X509v3 Subject Key Identifier: 
                44:FB:0D:A8:28:85:6A:0B:5B:11:5D:43:69:9E:3E:3F:68:C3:B5:FC
            X509v3 Authority Key Identifier: 
                DirName:/C=FR/ST=IDF/L=Paris/O=Fake NodeOPCUA Certification Authority (for testing only)/CN=node-opcua.github.io
                serial:B4:08:90:F7:3C:7E:01:6E

            X509v3 Subject Alternative Name: 
                URI:urn:NodeOPCUA-Client, DNS:localhost
            X509v3 Issuer Alternative Name: 
                <EMPTY>

    Signature Algorithm: sha256WithRSAEncryption
         4f:36:39:bb:00:00:68:8d:b5:39:10:ee:e5:76:9f:5f:01:7d:
         6a:a9:e6:3f:a6:89:1f:de:d6:87:a4:83:f7:ec:51:21:ca:57:
         e2:fb:4f:ae:7b:6f:04:87:ca:3f:82:16:34:4c:f6:c8:ac:af:
         5b:74:fc:71:79:ac:74:62:78:1e:af:96:71:5c:f3:69:20:cb:
         19:37:01:83:95:57:b0:a1:45:b6:28:c8:9e:a7:61:28:4a:6b:
         05:59:89:63:55:4b:7d:49:22:7c:6b:78:2b:74:cc:3a:7b:ae:
         c6:58:f6:28:71:d2:be:52:eb:dc:b0:40:1a:bf:0d:98:c8:e9:
         fa:de:44:e5:4a:e1:0a:c1:5f:3a:cc:df:0b:20:a3:9d:1a:a1:
         25:b1:f7:ff:92:1c:ba:da:d8:a8:5a:d3:c4:8a:f4:e3:a5:1e:
         3d:63:ca:9d:f3:0f:08:55:ef:80:73:51:ee:00:64:9d:ed:57:
         68:40:bf:f0:92:08:ea:e6:74:7a:0f:bb:49:a8:18:b0:36:2b:
         90:0f:24:58:e9:d9:c8:4d:a8:c8:25:62:29:dd:30:20:08:07:
         5a:e9:ed:6a:11:45:10:d9:ce:33:36:67:fd:2e:2a:82:0b:d3:
         99:b8:6c:0a:6b:00:13:b2:89:db:f0:a6:17:73:98:2c:35:72:
         f8:2b:17:f9
-----BEGIN CERTIFICATE-----
MIID0TCCArmgAwIBAgICEHIwDQYJKoZIhvcNAQELBQAwgY4xCzAJBgNVBAYTAkZS
MQwwCgYDVQQIDANJREYxDjAMBgNVBAcMBVBhcmlzMUIwQAYDVQQKDDlGYWtlIE5v
ZGVPUENVQSBDZXJ0aWZpY2F0aW9uIEF1dGhvcml0eSAoZm9yIHRlc3Rpbmcgb25s
eSkxHTAbBgNVBAMMFG5vZGUtb3BjdWEuZ2l0aHViLmlvMB4XDTE1MDIxNDE2NTQw
NloXDTE2MDIxNDE2NTQwNlowMzESMBAGA1UEChMJTm9kZU9QQ1VBMR0wGwYDVQQD
ExR1cm46Tm9kZU9QQ1VBLUNsaWVudDCBnzANBgkqhkiG9w0BAQEFAAOBjQAwgYkC
gYEAq1f7IOIPLjKzBBaKXGpB47CY827VPJ3jEWTt83LKrK/v9K2MOqRZW9XkA9D2
X3SD8v620mlxkHZcxneh/aPcT+x64W1hMQBH8cT0WEZEtHUtlTgjTwj/p6FA26m4
Agzqlaa1oBl+DgzwelejaEikiIXvERTxr3jne86hv2I7yZ8CAwEAAaOCARUwggER
MAkGA1UdEwQCMAAwHQYDVR0OBBYEFET7DagohWoLWxFdQ2mePj9ow7X8MIGtBgNV
HSMEgaUwgaKhgZSkgZEwgY4xCzAJBgNVBAYTAkZSMQwwCgYDVQQIDANJREYxDjAM
BgNVBAcMBVBhcmlzMUIwQAYDVQQKDDlGYWtlIE5vZGVPUENVQSBDZXJ0aWZpY2F0
aW9uIEF1dGhvcml0eSAoZm9yIHRlc3Rpbmcgb25seSkxHTAbBgNVBAMMFG5vZGUt
b3BjdWEuZ2l0aHViLmlvggkAtAiQ9zx+AW4wKgYDVR0RBCMwIYYUdXJuOk5vZGVP
UENVQS1DbGllbnSCCWxvY2FsaG9zdDAJBgNVHRIEAjAAMA0GCSqGSIb3DQEBCwUA
A4IBAQBPNjm7AABojbU5EO7ldp9fAX1qqeY/pokf3taHpIP37FEhylfi+0+ue28E
h8o/ghY0TPbIrK9bdPxxeax0Ynger5ZxXPNpIMsZNwGDlVewoUW2KMiep2EoSmsF
WYljVUt9SSJ8a3grdMw6e67GWPYocdK+UuvcsEAavw2YyOn63kTlSuEKwV86zN8L
IKOdGqElsff/khy62tioWtPEivTjpR49Y8qd8w8IVe+Ac1HuAGSd7VdoQL/wkgjq
5nR6D7tJqBiwNiuQDyRY6dnITajIJWIp3TAgCAda6e1qEUUQ2c4zNmf9LiqCC9OZ
uGwKawATsonb8KYXc5gsNXL4Kxf5
-----END CERTIFICATE-----
