Certificate:
    Data:
        Version: 1 (0x0)
        Serial Number:
            fd:4c:7c:7e:09:33:b4:38
    Signature Algorithm: sha256WithRSAEncryption
        Issuer: O=NodeOPCUA, CN=NodeOPCUA
        Validity
            Not Before: Oct 13 05:16:57 2015 GMT
            Not After : Jul  9 05:16:57 2018 GMT
        Subject: O=NodeOPCUA, CN=NodeOPCUA
        Subject Public Key Info:
            Public Key Algorithm: rsaEncryption
                Public-Key: (1024 bit)
                Modulus:
                    00:99:6c:4e:48:8e:e9:98:2c:b3:eb:b9:af:33:da:
                    00:d5:69:15:f4:9c:8d:dc:dc:3a:a2:86:51:58:86:
                    3e:ea:27:7a:8e:a0:13:63:c4:97:77:0c:4f:0b:76:
                    82:d5:ba:f6:cf:89:cd:75:31:99:15:c0:cf:dd:99:
                    78:2e:54:19:ae:94:5b:6f:92:e1:e6:83:d8:b0:0e:
                    81:59:8c:bd:7e:27:54:53:31:98:9b:00:0c:eb:bb:
                    5d:31:b1:95:3e:68:b5:f8:f6:3b:e1:84:42:8a:07:
                    41:4a:42:ee:89:27:cd:c3:10:1c:7c:7a:5f:ba:b8:
                    09:2b:3d:37:a9:4f:e8:ae:2b
                Exponent: 65537 (0x10001)
    Signature Algorithm: sha256WithRSAEncryption
         48:50:f3:4d:a4:31:2e:36:4c:d8:4f:dc:d5:06:04:0f:06:9b:
         d9:85:21:d5:59:50:c7:e5:aa:df:b3:59:c7:2e:04:69:f8:52:
         ce:8c:bc:69:ab:ae:4c:a6:9c:06:13:fd:6d:be:a3:3f:f4:0c:
         1e:b7:7e:d8:fd:aa:0b:33:70:a8:80:51:42:e0:85:15:06:5f:
         4c:7e:90:d2:32:63:e6:7d:9f:c2:6b:66:c1:11:86:d0:8d:e9:
         5f:44:21:08:b7:39:6d:42:d1:9a:e3:21:b4:21:52:aa:ee:06:
         f0:18:94:9b:b4:51:de:89:e8:08:6d:bb:da:0c:01:e5:36:21:
         34:49
-----BEGIN CERTIFICATE-----
MIIBxzCCATACCQD9THx+CTO0ODANBgkqhkiG9w0BAQsFADAoMRIwEAYDVQQKEwlO
b2RlT1BDVUExEjAQBgNVBAMTCU5vZGVPUENVQTAeFw0xNTEwMTMwNTE2NTdaFw0x
ODA3MDkwNTE2NTdaMCgxEjAQBgNVBAoTCU5vZGVPUENVQTESMBAGA1UEAxMJTm9k
ZU9QQ1VBMIGfMA0GCSqGSIb3DQEBAQUAA4GNADCBiQKBgQCZbE5IjumYLLPrua8z
2gDVaRX0nI3c3DqihlFYhj7qJ3qOoBNjxJd3DE8LdoLVuvbPic11MZkVwM/dmXgu
VBmulFtvkuHmg9iwDoFZjL1+J1RTMZibAAzru10xsZU+aLX49jvhhEKKB0FKQu6J
J83DEBx8el+6uAkrPTepT+iuKwIDAQABMA0GCSqGSIb3DQEBCwUAA4GBAEhQ802k
MS42TNhP3NUGBA8Gm9mFIdVZUMflqt+zWccuBGn4Us6MvGmrrkymnAYT/W2+oz/0
DB63ftj9qgszcKiAUULghRUGX0x+kNIyY+Z9n8JrZsERhtCN6V9EIQi3OW1C0Zrj
IbQhUqruBvAYlJu0Ud6J6Ahtu9oMAeU2ITRJ
-----END CERTIFICATE-----
