Certificate:
    Data:
        Version: 3 (0x2)
        Serial Number: 4208 (0x1070)
    Signature Algorithm: sha256WithRSAEncryption
        Issuer: C=FR, ST=IDF, L=Paris, O=Fake NodeOPCUA Certification Authority (for testing only), CN=node-opcua.github.io
        Validity
            Not Before: Feb 14 16:44:51 2015 GMT
            Not After : Feb 14 16:44:51 2016 GMT
        Subject: O=NodeOPCUA, CN=urn:NodeOPCUA-Server
        Subject Public Key Info:
            Public Key Algorithm: rsaEncryption
                Public-Key: (1024 bit)
                Modulus:
                    00:dd:bb:7b:09:f6:05:41:43:70:b4:92:50:af:4e:
                    e6:53:c9:fc:18:a8:bf:b6:1a:76:f1:9e:54:24:7f:
                    8a:6f:6d:30:ed:16:da:0a:dd:ee:fc:6a:a9:0c:f3:
                    a2:fe:dc:58:94:2b:f3:9d:0f:fd:d0:c6:90:e5:d6:
                    aa:05:7b:ec:2b:c7:95:54:03:f2:76:d6:54:24:e2:
                    c5:06:41:d9:73:33:00:e7:a9:2b:db:91:ea:a0:ea:
                    ce:fb:1e:62:53:21:c6:ea:52:b7:c6:17:3c:9e:c2:
                    e5:ea:f6:59:12:04:c0:d9:56:09:d7:ac:9d:02:d6:
                    15:11:69:81:39:08:1c:11:67
                Exponent: 65537 (0x10001)
        X509v3 extensions:
            X509v3 Basic Constraints: 
                CA:FALSE
            X509v3 Subject Key Identifier: 
                62:56:55:1C:25:CB:5D:D8:42:B9:5D:F9:D2:66:C5:1B:F2:5F:54:F3
            X509v3 Authority Key Identifier: 
                DirName:/C=FR/ST=IDF/L=Paris/O=Fake NodeOPCUA Certification Authority (for testing only)/CN=node-opcua.github.io
                serial:C7:01:6C:76:F3:B1:47:B8

            X509v3 Subject Alternative Name: 
                URI:urn:NodeOPCUA-Server, DNS:localhost
            X509v3 Issuer Alternative Name: 
                <EMPTY>

    Signature Algorithm: sha256WithRSAEncryption
         33:5a:d1:f7:96:73:ce:60:ed:8a:00:b6:aa:fb:bc:23:34:e3:
         48:98:f1:37:b3:f6:e5:43:28:a2:1f:31:c0:0b:3f:e8:50:67:
         4d:a3:1f:02:55:6a:25:f4:2b:29:1d:26:1c:d7:92:9a:bf:f8:
         b2:24:9b:2b:f4:ed:35:54:50:3d:22:dd:39:e3:2f:a5:af:e5:
         c2:b6:36:b3:f7:ef:3a:db:6d:69:87:a1:4d:e4:5c:8a:c7:8a:
         b7:de:ea:48:38:26:84:58:9a:84:ca:9a:90:06:d3:60:2f:5b:
         11:8e:d5:70:73:38:45:c9:cd:82:ba:29:b1:1d:54:90:ae:8c:
         30:22:cc:6e:ed:c4:fe:48:c6:ff:53:4a:b0:71:d4:d5:77:14:
         10:1a:4c:f2:da:c5:b1:f8:0d:8d:57:92:d3:d6:64:bf:90:af:
         4b:f4:7e:73:fe:ac:91:3e:cf:74:12:4e:15:0c:ba:b9:4f:24:
         20:c6:f4:48:40:be:93:6d:ef:24:54:a6:a1:fb:58:34:26:bf:
         87:8d:e5:5e:52:15:da:07:bf:cb:74:f1:01:f1:89:1c:14:4e:
         5d:c2:14:32:e2:4b:ed:83:2c:cd:8a:87:a9:27:04:f5:f4:17:
         7c:43:16:a9:14:5a:e5:b9:29:1f:1a:cf:2c:f8:c0:04:06:26:
         e3:bd:84:b3
-----BEGIN CERTIFICATE-----
MIID0TCCArmgAwIBAgICEHAwDQYJKoZIhvcNAQELBQAwgY4xCzAJBgNVBAYTAkZS
MQwwCgYDVQQIDANJREYxDjAMBgNVBAcMBVBhcmlzMUIwQAYDVQQKDDlGYWtlIE5v
ZGVPUENVQSBDZXJ0aWZpY2F0aW9uIEF1dGhvcml0eSAoZm9yIHRlc3Rpbmcgb25s
eSkxHTAbBgNVBAMMFG5vZGUtb3BjdWEuZ2l0aHViLmlvMB4XDTE1MDIxNDE2NDQ1
MVoXDTE2MDIxNDE2NDQ1MVowMzESMBAGA1UEChMJTm9kZU9QQ1VBMR0wGwYDVQQD
ExR1cm46Tm9kZU9QQ1VBLVNlcnZlcjCBnzANBgkqhkiG9w0BAQEFAAOBjQAwgYkC
gYEA3bt7CfYFQUNwtJJQr07mU8n8GKi/thp28Z5UJH+Kb20w7RbaCt3u/GqpDPOi
/txYlCvznQ/90MaQ5daqBXvsK8eVVAPydtZUJOLFBkHZczMA56kr25HqoOrO+x5i
UyHG6lK3xhc8nsLl6vZZEgTA2VYJ16ydAtYVEWmBOQgcEWcCAwEAAaOCARUwggER
MAkGA1UdEwQCMAAwHQYDVR0OBBYEFGJWVRwly13YQrld+dJmxRvyX1TzMIGtBgNV
HSMEgaUwgaKhgZSkgZEwgY4xCzAJBgNVBAYTAkZSMQwwCgYDVQQIDANJREYxDjAM
BgNVBAcMBVBhcmlzMUIwQAYDVQQKDDlGYWtlIE5vZGVPUENVQSBDZXJ0aWZpY2F0
aW9uIEF1dGhvcml0eSAoZm9yIHRlc3Rpbmcgb25seSkxHTAbBgNVBAMMFG5vZGUt
b3BjdWEuZ2l0aHViLmlvggkAxwFsdvOxR7gwKgYDVR0RBCMwIYYUdXJuOk5vZGVP
UENVQS1TZXJ2ZXKCCWxvY2FsaG9zdDAJBgNVHRIEAjAAMA0GCSqGSIb3DQEBCwUA
A4IBAQAzWtH3lnPOYO2KALaq+7wjNONImPE3s/blQyiiHzHACz/oUGdNox8CVWol
9CspHSYc15Kav/iyJJsr9O01VFA9It054y+lr+XCtjaz9+86221ph6FN5FyKx4q3
3upIOCaEWJqEypqQBtNgL1sRjtVwczhFyc2CuimxHVSQrowwIsxu7cT+SMb/U0qw
cdTVdxQQGkzy2sWx+A2NV5LT1mS/kK9L9H5z/qyRPs90Ek4VDLq5TyQgxvRIQL6T
be8kVKah+1g0Jr+HjeVeUhXaB7/LdPEB8YkcFE5dwhQy4kvtgyzNioepJwT19Bd8
QxapFFrluSkfGs8s+MAEBibjvYSz
-----END CERTIFICATE-----
