Certificate:
    Data:
        Version: 3 (0x2)
        Serial Number: 4221 (0x107d)
    Signature Algorithm: sha256WithRSAEncryption
        Issuer: C=FR, ST=IDF, L=Paris, O=Fake NodeOPCUA Certification Authority (for testing only), CN=node-opcua.github.io
        Validity
            Not Before: Feb 14 17:02:52 2015 GMT
            Not After : Feb 14 17:02:52 2016 GMT
        Subject: O=NodeOPCUA, CN=urn:NodeOPCUA-Server
        Subject Public Key Info:
            Public Key Algorithm: rsaEncryption
                Public-Key: (2048 bit)
                Modulus:
                    00:d0:4a:4f:77:3c:ee:0f:54:05:75:60:5a:80:13:
                    0a:3c:5d:26:00:6e:d7:3b:cc:46:d1:77:3a:05:11:
                    e8:93:aa:8f:b8:fa:e3:77:8e:ea:2f:88:c6:97:38:
                    d3:43:a3:85:87:f7:72:25:b9:63:91:a3:0f:90:4e:
                    e7:d8:41:1a:5d:d5:ad:df:c7:72:cb:b6:cc:f4:27:
                    e8:2d:94:bb:3f:c0:09:25:87:c6:d0:80:ed:09:03:
                    0d:d0:8a:a8:6d:8b:3f:e6:ea:1b:3c:bc:23:45:47:
                    10:6d:13:00:68:9b:b9:cb:2f:3f:bb:b9:ea:33:35:
                    c8:6e:ce:92:8e:2c:c4:e4:f2:be:14:3e:54:6d:a5:
                    0d:df:c0:d0:3b:b2:9f:cf:0f:33:7e:96:f3:73:ce:
                    47:47:08:25:2a:ac:85:08:bb:c1:e1:8d:9c:39:00:
                    62:b3:6f:f6:b9:3a:15:49:ba:bb:41:c8:9c:9e:1f:
                    eb:ca:5f:55:9b:f7:e8:52:81:e9:2c:76:b6:1c:f4:
                    8b:ae:32:e6:5a:3f:08:0e:d9:bb:01:08:f0:71:04:
                    74:3c:49:9e:11:af:ac:54:85:9b:ec:97:9f:a2:ec:
                    7c:bd:5d:de:81:e4:e8:95:dd:2c:ef:ca:e7:35:d7:
                    89:53:d1:ec:d9:0c:be:1c:0e:e0:28:16:44:a1:c6:
                    1b:4b
                Exponent: 65537 (0x10001)
        X509v3 extensions:
            X509v3 Basic Constraints: 
                CA:FALSE
            X509v3 Subject Key Identifier: 
                BA:2E:EF:FD:2C:50:F9:AB:5C:9A:55:DA:C2:76:E9:0E:63:32:E4:99
            X509v3 Authority Key Identifier: 
                DirName:/C=FR/ST=IDF/L=Paris/O=Fake NodeOPCUA Certification Authority (for testing only)/CN=node-opcua.github.io
                serial:88:79:75:BF:98:A9:7E:29

            X509v3 Subject Alternative Name: 
                URI:urn:NodeOPCUA-Server, DNS:localhost
            X509v3 Issuer Alternative Name: 
                <EMPTY>

    Signature Algorithm: sha256WithRSAEncryption
         2b:9c:b7:f5:8d:13:2f:ff:c3:2b:16:d2:a6:06:45:01:06:e9:
         73:2b:32:7d:5f:1d:ba:7c:9f:7b:eb:97:0f:31:08:94:6a:b8:
         f8:44:9d:ba:11:e9:23:31:d8:e2:77:a9:e4:d3:d8:97:7f:e6:
         d6:c5:17:a3:80:04:43:f2:5d:6c:2d:4e:5e:75:44:31:15:7a:
         9f:5e:34:32:c9:3b:1d:b5:92:78:a7:6b:67:05:47:81:1d:dd:
         b5:bc:6b:db:f8:d8:7b:9e:19:fb:58:a3:a0:46:b2:6d:1d:4d:
         57:b7:04:1a:1b:76:04:f1:0b:4b:28:47:e6:d2:7b:77:49:28:
         44:94:77:4c:88:84:b4:f5:d6:85:ef:5f:42:89:b9:05:2f:32:
         a4:8d:13:f0:03:e6:25:17:76:51:9e:b7:6b:0d:da:96:d6:5c:
         a7:44:40:d7:f3:f2:fb:c5:5a:a2:aa:44:82:4e:96:fa:4d:17:
         c6:33:3b:24:6a:d7:dc:69:b2:54:d7:71:45:3d:06:68:43:89:
         71:7a:09:d2:60:39:84:42:76:c6:3a:4d:de:5b:14:4a:20:06:
         10:4d:0f:75:82:46:ef:c2:d3:af:b6:7b:30:0e:ff:21:b7:a7:
         91:1f:f5:a6:e9:bd:ad:c5:fb:1d:5a:74:66:b7:e1:bd:37:f4:
         f5:d9:ee:f1
-----BEGIN CERTIFICATE-----
MIIEVTCCAz2gAwIBAgICEH0wDQYJKoZIhvcNAQELBQAwgY4xCzAJBgNVBAYTAkZS
MQwwCgYDVQQIDANJREYxDjAMBgNVBAcMBVBhcmlzMUIwQAYDVQQKDDlGYWtlIE5v
ZGVPUENVQSBDZXJ0aWZpY2F0aW9uIEF1dGhvcml0eSAoZm9yIHRlc3Rpbmcgb25s
eSkxHTAbBgNVBAMMFG5vZGUtb3BjdWEuZ2l0aHViLmlvMB4XDTE1MDIxNDE3MDI1
MloXDTE2MDIxNDE3MDI1MlowMzESMBAGA1UEChMJTm9kZU9QQ1VBMR0wGwYDVQQD
ExR1cm46Tm9kZU9QQ1VBLVNlcnZlcjCCASIwDQYJKoZIhvcNAQEBBQADggEPADCC
AQoCggEBANBKT3c87g9UBXVgWoATCjxdJgBu1zvMRtF3OgUR6JOqj7j643eO6i+I
xpc400OjhYf3ciW5Y5GjD5BO59hBGl3Vrd/Hcsu2zPQn6C2Uuz/ACSWHxtCA7QkD
DdCKqG2LP+bqGzy8I0VHEG0TAGibucsvP7u56jM1yG7Oko4sxOTyvhQ+VG2lDd/A
0Duyn88PM36W83POR0cIJSqshQi7weGNnDkAYrNv9rk6FUm6u0HInJ4f68pfVZv3
6FKB6Sx2thz0i64y5lo/CA7ZuwEI8HEEdDxJnhGvrFSFm+yXn6LsfL1d3oHk6JXd
LO/K5zXXiVPR7NkMvhwO4CgWRKHGG0sCAwEAAaOCARUwggERMAkGA1UdEwQCMAAw
HQYDVR0OBBYEFLou7/0sUPmrXJpV2sJ26Q5jMuSZMIGtBgNVHSMEgaUwgaKhgZSk
gZEwgY4xCzAJBgNVBAYTAkZSMQwwCgYDVQQIDANJREYxDjAMBgNVBAcMBVBhcmlz
MUIwQAYDVQQKDDlGYWtlIE5vZGVPUENVQSBDZXJ0aWZpY2F0aW9uIEF1dGhvcml0
eSAoZm9yIHRlc3Rpbmcgb25seSkxHTAbBgNVBAMMFG5vZGUtb3BjdWEuZ2l0aHVi
LmlvggkAiHl1v5ipfikwKgYDVR0RBCMwIYYUdXJuOk5vZGVPUENVQS1TZXJ2ZXKC
CWxvY2FsaG9zdDAJBgNVHRIEAjAAMA0GCSqGSIb3DQEBCwUAA4IBAQArnLf1jRMv
/8MrFtKmBkUBBulzKzJ9Xx26fJ9765cPMQiUarj4RJ26EekjMdjid6nk09iXf+bW
xRejgARD8l1sLU5edUQxFXqfXjQyyTsdtZJ4p2tnBUeBHd21vGvb+Nh7nhn7WKOg
RrJtHU1XtwQaG3YE8QtLKEfm0nt3SShElHdMiIS09daF719CibkFLzKkjRPwA+Yl
F3ZRnrdrDdqW1lynREDX8/L7xVqiqkSCTpb6TRfGMzskatfcabJU13FFPQZoQ4lx
egnSYDmEQnbGOk3eWxRKIAYQTQ91gkbvwtOvtnswDv8ht6eRH/Wm6b2txfsdWnRm
t+G9N/T12e7x
-----END CERTIFICATE-----
